target datalayout = "e-m:e-p270:32:32-p271:32:32-p272:64:64-i64:64-i128:128-f80:128-n8:16:32:64-S128"
target triple = "x86_64-pc-linux-gnu"

%struct.PJ_LP = type { double, double }
%struct.PJ_XY = type { double, double }

; Function Attrs: mustprogress uwtable
define internal { double, double } @_ZL10auto_e_inv5PJ_XYP8PJconsts(double %0, double %1, ptr noundef %2) #0 {
  %4 = alloca %struct.PJ_LP, align 8
  %5 = alloca %struct.PJ_XY, align 8
  %6 = alloca ptr, align 8
  %7 = alloca %struct.PJ_XY, align 8
  %8 = alloca %struct.PJ_XY, align 8
  %9 = getelementptr inbounds nuw { double, double }, ptr %5, i32 0, i32 0
  store double %0, ptr %9, align 8
  %10 = getelementptr inbounds nuw { double, double }, ptr %5, i32 0, i32 1
  store double %1, ptr %10, align 8
  store ptr %2, ptr %6, align 8, !tbaa !3
  %11 = getelementptr inbounds nuw %struct.PJ_XY, ptr %5, i32 0, i32 0
  %12 = load double, ptr %11, align 8, !tbaa !96
  %13 = call double @llvm.fabs.f64(double %12)
  %14 = getelementptr inbounds nuw %struct.PJ_XY, ptr %5, i32 0, i32 1
  %15 = load double, ptr %14, align 8, !tbaa !100
  %16 = fmul double 2.200000e-02, %15
  %17 = getelementptr inbounds nuw %struct.PJ_XY, ptr %5, i32 0, i32 1
  %18 = load double, ptr %17, align 8, !tbaa !100
  %19 = fneg double %16
  %20 = call double @llvm.fmuladd.f64(double %19, double %18, double 5.300000e-02)
  %21 = fcmp ogt double %13, %20
  br i1 %21, label %22, label %33

22:                                               ; preds = %3
  call void @llvm.memcpy.p0.p0.i64(ptr align 8 %7, ptr align 8 %5, i64 16, i1 false), !tbaa.struct !99
  %23 = load ptr, ptr %6, align 8, !tbaa !3
  %24 = getelementptr inbounds nuw { double, double }, ptr %7, i32 0, i32 0
  %25 = load double, ptr %24, align 8
  %26 = getelementptr inbounds nuw { double, double }, ptr %7, i32 0, i32 1
  %27 = load double, ptr %26, align 8
  %28 = call { double, double } @_ZL11exact_e_inv5PJ_XYP8PJconsts(double %25, double %27, ptr noundef %23)
  %29 = getelementptr inbounds nuw { double, double }, ptr %4, i32 0, i32 0
  %30 = extractvalue { double, double } %28, 0
  store double %30, ptr %29, align 8
  %31 = getelementptr inbounds nuw { double, double }, ptr %4, i32 0, i32 1
  %32 = extractvalue { double, double } %28, 1
  store double %32, ptr %31, align 8
  br label %44

33:                                               ; preds = %3
  call void @llvm.memcpy.p0.p0.i64(ptr align 8 %8, ptr align 8 %5, i64 16, i1 false), !tbaa.struct !99
  %34 = load ptr, ptr %6, align 8, !tbaa !3
  %35 = getelementptr inbounds nuw { double, double }, ptr %8, i32 0, i32 0
  %36 = load double, ptr %35, align 8
  %37 = getelementptr inbounds nuw { double, double }, ptr %8, i32 0, i32 1
  %38 = load double, ptr %37, align 8
  %39 = call { double, double } @_ZL12approx_e_inv5PJ_XYP8PJconsts(double %36, double %38, ptr noundef %34)
  %40 = getelementptr inbounds nuw { double, double }, ptr %4, i32 0, i32 0
  %41 = extractvalue { double, double } %39, 0
  store double %41, ptr %40, align 8
  %42 = getelementptr inbounds nuw { double, double }, ptr %4, i32 0, i32 1
  %43 = extractvalue { double, double } %39, 1
  store double %43, ptr %42, align 8
  br label %44

44:                                               ; preds = %33, %22
  %45 = load { double, double }, ptr %4, align 8
  ret { double, double } %45
}