; Function Attrs: mustprogress uwtable
define internal { double, double } @_ZL10auto_e_inv5PJ_XYP8PJconsts(double %0, double %1, ptr noundef %2) #0 {
  %4 = tail call double @llvm.fabs.f64(double %0)
  %5 = fmul double %1, -2.200000e-02
  %6 = tail call double @llvm.fmuladd.f64(double %5, double %1, double 5.300000e-02)
  %7 = fcmp ogt double %4, %6
  br i1 %7, label %8, label %10

8:                                                ; preds = %3
  %9 = tail call { double, double } @_ZL11exact_e_inv5PJ_XYP8PJconsts(double %0, double %1, ptr noundef %2)
  br label %12

10:                                               ; preds = %3
  %11 = tail call { double, double } @_ZL12approx_e_inv5PJ_XYP8PJconsts(double %0, double %1, ptr noundef %2)
  br label %12

12:                                               ; preds = %10, %8
  %.pn = phi { double, double } [ %9, %8 ], [ %11, %10 ]
  ret { double, double } %.pn
}